; ModuleID = 'source-C-CXX/42/912.c'
source_filename = "source-C-CXX/42/912.c"
target datalayout = "e-m:e-p270:32:32-p271:32:32-p272:64:64-i64:64-f80:128-n8:16:32:64-S128"
target triple = "x86_64-pc-linux-gnu"

@.str = private unnamed_addr constant [3 x i8] c"%d\00", align 1
@.str.1 = private unnamed_addr constant [7 x i8] c"%d %d\0A\00", align 1

; Function Attrs: nofree nounwind sspstrong uwtable
define dso_local i32 @main() local_unnamed_addr #0 {
  %1 = alloca i32, align 4
  %2 = bitcast i32* %1 to i8*
  call void @llvm.lifetime.start.p0i8(i64 4, i8* nonnull %2) #4
  %3 = call i32 (i8*, ...) @__isoc99_scanf(i8* getelementptr inbounds ([3 x i8], [3 x i8]* @.str, i64 0, i64 0), i32* nonnull %1)
  %4 = load i32, i32* %1, align 4, !tbaa !5
  %5 = icmp slt i32 %4, 6
  br i1 %5, label %35, label %6

6:                                                ; preds = %0, %30
  %7 = phi i32 [ %31, %30 ], [ %4, %0 ]
  %8 = phi i32 [ %32, %30 ], [ 3, %0 ]
  br label %9

9:                                                ; preds = %6, %9
  %10 = phi i32 [ %13, %9 ], [ 2, %6 ]
  %11 = urem i32 %8, %10
  %12 = icmp eq i32 %11, 0
  %13 = add nuw nsw i32 %10, 1
  br i1 %12, label %14, label %9, !llvm.loop !9

14:                                               ; preds = %9
  %15 = lshr i32 %8, 1
  %16 = icmp ugt i32 %10, %15
  br i1 %16, label %17, label %30

17:                                               ; preds = %14
  %18 = sub nsw i32 %7, %8
  br label %19

19:                                               ; preds = %19, %17
  %20 = phi i32 [ 2, %17 ], [ %23, %19 ]
  %21 = srem i32 %18, %20
  %22 = icmp eq i32 %21, 0
  %23 = add nuw nsw i32 %20, 1
  br i1 %22, label %24, label %19, !llvm.loop !9

24:                                               ; preds = %19
  %25 = sdiv i32 %18, 2
  %26 = icmp sgt i32 %20, %25
  br i1 %26, label %27, label %30

27:                                               ; preds = %24
  %28 = call i32 (i8*, ...) @printf(i8* nonnull dereferenceable(1) getelementptr inbounds ([7 x i8], [7 x i8]* @.str.1, i64 0, i64 0), i32 %8, i32 %18)
  %29 = load i32, i32* %1, align 4, !tbaa !5
  br label %30

30:                                               ; preds = %24, %27, %14
  %31 = phi i32 [ %7, %24 ], [ %29, %27 ], [ %7, %14 ]
  %32 = add nuw nsw i32 %8, 2
  %33 = sdiv i32 %31, 2
  %34 = icmp sgt i32 %32, %33
  br i1 %34, label %35, label %6, !llvm.loop !11

35:                                               ; preds = %30, %0
  call void @llvm.lifetime.end.p0i8(i64 4, i8* nonnull %2) #4
  ret i32 0
}

; Function Attrs: argmemonly mustprogress nofree nosync nounwind willreturn
declare void @llvm.lifetime.start.p0i8(i64 immarg, i8* nocapture) #1

; Function Attrs: nofree nounwind
declare noundef i32 @__isoc99_scanf(i8* nocapture noundef readonly, ...) local_unnamed_addr #2

; Function Attrs: nofree norecurse nosync nounwind readnone sspstrong uwtable
define dso_local i32 @f(i32 %0) local_unnamed_addr #3 {
  br label %2

2:                                                ; preds = %2, %1
  %3 = phi i32 [ 2, %1 ], [ %6, %2 ]
  %4 = srem i32 %0, %3
  %5 = icmp eq i32 %4, 0
  %6 = add nuw nsw i32 %3, 1
  br i1 %5, label %7, label %2, !llvm.loop !9

7:                                                ; preds = %2
  %8 = sdiv i32 %0, 2
  %9 = icmp sgt i32 %3, %8
  %10 = zext i1 %9 to i32
  ret i32 %10
}

; Function Attrs: nofree nounwind
declare noundef i32 @printf(i8* nocapture noundef readonly, ...) local_unnamed_addr #2

; Function Attrs: argmemonly mustprogress nofree nosync nounwind willreturn
declare void @llvm.lifetime.end.p0i8(i64 immarg, i8* nocapture) #1


!llvm.module.flags = !{!0, !1, !2, !3}
!llvm.ident = !{!4}

!0 = !{i32 1, !"wchar_size", i32 4}
!1 = !{i32 7, !"PIC Level", i32 2}
!2 = !{i32 7, !"PIE Level", i32 2}
!3 = !{i32 7, !"uwtable", i32 1}
!4 = !{!"clang version 13.0.0"}
!5 = !{!6, !6, i64 0}
!6 = !{!"int", !7, i64 0}
!7 = !{!"omnipotent char", !8, i64 0}
!8 = !{!"Simple C/C++ TBAA"}
!9 = distinct !{!9, !10}
!10 = !{!"llvm.loop.mustprogress"}
!11 = distinct !{!11, !10}
